target datalayout = "e-m:e-p270:32:32-p271:32:32-p272:64:64-i64:64-i128:128-f80:128-n8:16:32:64-S128"
target triple = "x86_64-pc-linux-gnu"

%struct.RelationData = type { %struct.RelFileLocator, ptr, i32, i32, i8, i8, i8, i8, i8, i32, i32, i32, i32, ptr, ptr, i32, %struct.LockInfoData, ptr, ptr, ptr, ptr, ptr, i8, ptr, ptr, ptr, ptr, ptr, ptr, i32, ptr, i8, ptr, ptr, i32, i8, i32, ptr, i8, ptr, ptr, ptr, ptr, ptr, ptr, ptr, i32, ptr, ptr, ptr, ptr, ptr, ptr, ptr, ptr, ptr, ptr, ptr, ptr, ptr, ptr, ptr, ptr, ptr, ptr, ptr, i32, i8, ptr }
%struct.RelFileLocator = type { i32, i32, i32 }
%struct.LockInfoData = type { %struct.LockRelId }
%struct.LockRelId = type { i32, i32 }
%struct.IndexVacuumInfo = type { ptr, ptr, i8, i8, i8, i32, double, ptr }
%struct.IndexBulkDeleteResult = type { i32, i8, double, double, i32, i32, i32 }

@InterruptPending = external global i32, align 4

; Function Attrs: nounwind uwtable
define internal void @brin_vacuum_scan(ptr noundef %0, ptr noundef %1) #0 {
  %3 = alloca ptr, align 8
  %4 = alloca ptr, align 8
  %5 = alloca i32, align 4
  %6 = alloca i32, align 4
  %7 = alloca i32, align 4
  store ptr %0, ptr %3, align 8
  store ptr %1, ptr %4, align 8
  call void @llvm.lifetime.start.p0(i64 4, ptr %5) #9
  call void @llvm.lifetime.start.p0(i64 4, ptr %6) #9
  %8 = load ptr, ptr %3, align 8
  %9 = call i32 @RelationGetNumberOfBlocksInFork(ptr noundef %8, i32 noundef 0)
  store i32 %9, ptr %5, align 4
  store i32 0, ptr %6, align 4
  br label %10

10:                                               ; preds = %33, %2
  %11 = load i32, ptr %6, align 4
  %12 = load i32, ptr %5, align 4
  %13 = icmp ult i32 %11, %12
  br i1 %13, label %14, label %36

14:                                               ; preds = %10
  call void @llvm.lifetime.start.p0(i64 4, ptr %7) #9
  br label %15

15:                                               ; preds = %14
  %16 = load volatile i32, ptr @InterruptPending, align 4
  %17 = icmp ne i32 %16, 0
  %18 = zext i1 %17 to i32
  %19 = sext i32 %18 to i64
  %20 = call i64 @llvm.expect.i64(i64 %19, i64 0)
  %21 = icmp ne i64 %20, 0
  br i1 %21, label %22, label %23

22:                                               ; preds = %15
  call void @ProcessInterrupts()
  br label %23

23:                                               ; preds = %22, %15
  br label %24

24:                                               ; preds = %23
  br label %25

25:                                               ; preds = %24
  %26 = load ptr, ptr %3, align 8
  %27 = load i32, ptr %6, align 4
  %28 = load ptr, ptr %4, align 8
  %29 = call i32 @ReadBufferExtended(ptr noundef %26, i32 noundef 0, i32 noundef %27, i32 noundef 0, ptr noundef %28)
  store i32 %29, ptr %7, align 4
  %30 = load ptr, ptr %3, align 8
  %31 = load i32, ptr %7, align 4
  call void @brin_page_cleanup(ptr noundef %30, i32 noundef %31)
  %32 = load i32, ptr %7, align 4
  call void @ReleaseBuffer(i32 noundef %32)
  call void @llvm.lifetime.end.p0(i64 4, ptr %7) #9
  br label %33

33:                                               ; preds = %25
  %34 = load i32, ptr %6, align 4
  %35 = add i32 %34, 1
  store i32 %35, ptr %6, align 4
  br label %10, !llvm.loop !22

36:                                               ; preds = %10
  %37 = load ptr, ptr %3, align 8
  call void @FreeSpaceMapVacuum(ptr noundef %37)
  call void @llvm.lifetime.end.p0(i64 4, ptr %6) #9
  call void @llvm.lifetime.end.p0(i64 4, ptr %5) #9
  ret void
}

; Function Attrs: nounwind uwtable
define dso_local ptr @brinvacuumcleanup(ptr noundef %0, ptr noundef %1) #0 {
  %3 = alloca ptr, align 8
  %4 = alloca ptr, align 8
  %5 = alloca ptr, align 8
  %6 = alloca ptr, align 8
  %7 = alloca i32, align 4
  store ptr %0, ptr %4, align 8
  store ptr %1, ptr %5, align 8
  call void @llvm.lifetime.start.p0(i64 8, ptr %6) #9
  %8 = load ptr, ptr %4, align 8
  %9 = getelementptr inbounds nuw %struct.IndexVacuumInfo, ptr %8, i32 0, i32 2
  %10 = load i8, ptr %9, align 8, !range !4, !noundef !5
  %11 = trunc i8 %10 to i1
  br i1 %11, label %12, label %14

12:                                               ; preds = %2
  %13 = load ptr, ptr %5, align 8
  store ptr %13, ptr %3, align 8
  store i32 1, ptr %7, align 4
  br label %49

14:                                               ; preds = %2
  %15 = load ptr, ptr %5, align 8
  %16 = icmp ne ptr %15, null
  br i1 %16, label %19, label %17

17:                                               ; preds = %14
  %18 = call ptr @palloc0(i64 noundef 40)
  store ptr %18, ptr %5, align 8
  br label %19

19:                                               ; preds = %17, %14
  %20 = load ptr, ptr %4, align 8
  %21 = getelementptr inbounds nuw %struct.IndexVacuumInfo, ptr %20, i32 0, i32 0
  %22 = load ptr, ptr %21, align 8
  %23 = call i32 @RelationGetNumberOfBlocksInFork(ptr noundef %22, i32 noundef 0)
  %24 = load ptr, ptr %5, align 8
  %25 = getelementptr inbounds nuw %struct.IndexBulkDeleteResult, ptr %24, i32 0, i32 0
  store i32 %23, ptr %25, align 8
  %26 = load ptr, ptr %4, align 8
  %27 = getelementptr inbounds nuw %struct.IndexVacuumInfo, ptr %26, i32 0, i32 0
  %28 = load ptr, ptr %27, align 8
  %29 = getelementptr inbounds nuw %struct.RelationData, ptr %28, i32 0, i32 15
  %30 = load i32, ptr %29, align 8
  %31 = call i32 @IndexGetRelation(i32 noundef %30, i1 noundef zeroext false)
  %32 = call ptr @table_open(i32 noundef %31, i32 noundef 1)
  store ptr %32, ptr %6, align 8
  %33 = load ptr, ptr %4, align 8
  %34 = getelementptr inbounds nuw %struct.IndexVacuumInfo, ptr %33, i32 0, i32 0
  %35 = load ptr, ptr %34, align 8
  %36 = load ptr, ptr %4, align 8
  %37 = getelementptr inbounds nuw %struct.IndexVacuumInfo, ptr %36, i32 0, i32 7
  %38 = load ptr, ptr %37, align 8
  call void @brin_vacuum_scan(ptr noundef %35, ptr noundef %38)
  %39 = load ptr, ptr %4, align 8
  %40 = getelementptr inbounds nuw %struct.IndexVacuumInfo, ptr %39, i32 0, i32 0
  %41 = load ptr, ptr %40, align 8
  %42 = load ptr, ptr %6, align 8
  %43 = load ptr, ptr %5, align 8
  %44 = getelementptr inbounds nuw %struct.IndexBulkDeleteResult, ptr %43, i32 0, i32 2
  %45 = load ptr, ptr %5, align 8
  %46 = getelementptr inbounds nuw %struct.IndexBulkDeleteResult, ptr %45, i32 0, i32 2
  call void @brinsummarize(ptr noundef %41, ptr noundef %42, i32 noundef -1, i1 noundef zeroext false, ptr noundef %44, ptr noundef %46)
  %47 = load ptr, ptr %6, align 8
  call void @table_close(ptr noundef %47, i32 noundef 1)
  %48 = load ptr, ptr %5, align 8
  store ptr %48, ptr %3, align 8
  store i32 1, ptr %7, align 4
  br label %49

49:                                               ; preds = %19, %12
  call void @llvm.lifetime.end.p0(i64 8, ptr %6) #9
  %50 = load ptr, ptr %3, align 8
  ret ptr %50
}