; Function Attrs: nounwind uwtable
define dso_local ptr @brinvacuumcleanup(ptr noundef readonly captures(none) %0, ptr noundef captures(address_is_null, ret: address, provenance) %1) #0 {
  %3 = getelementptr inbounds nuw i8, ptr %0, i64 16
  %4 = load i8, ptr %3, align 8, !range !4, !noundef !5
  %5 = trunc nuw i8 %4 to i1
  br i1 %5, label %28, label %6

6:                                                ; preds = %2
  %.not = icmp eq ptr %1, null
  br i1 %.not, label %7, label %9

7:                                                ; preds = %6
  %8 = tail call ptr @palloc0(i64 noundef 40) #10
  br label %9

9:                                                ; preds = %7, %6
  %.015 = phi ptr [ %1, %6 ], [ %8, %7 ]
  %10 = load ptr, ptr %0, align 8
  %11 = tail call i32 @RelationGetNumberOfBlocksInFork(ptr noundef %10, i32 noundef 0) #10
  store i32 %11, ptr %.015, align 8
  %12 = load ptr, ptr %0, align 8
  %13 = getelementptr inbounds nuw i8, ptr %12, i64 72
  %14 = load i32, ptr %13, align 8
  %15 = tail call i32 @IndexGetRelation(i32 noundef %14, i1 noundef zeroext false) #10
  %16 = tail call ptr @table_open(i32 noundef %15, i32 noundef 1) #10
  %17 = load ptr, ptr %0, align 8
  %18 = getelementptr inbounds nuw i8, ptr %0, i64 32
  %19 = load ptr, ptr %18, align 8
  %20 = tail call i32 @RelationGetNumberOfBlocksInFork(ptr noundef %17, i32 noundef 0) #10
  %.not11.i = icmp eq i32 %20, 0
  br i1 %.not11.i, label %brin_vacuum_scan.exit, label %.lr.ph.i

.lr.ph.i:                                         ; preds = %9, %23
  %.010.i = phi i32 [ %25, %23 ], [ 0, %9 ]
  %21 = load volatile i32, ptr @InterruptPending, align 4
  %.not.i = icmp eq i32 %21, 0
  br i1 %.not.i, label %23, label %22, !prof !13

22:                                               ; preds = %.lr.ph.i
  tail call void @ProcessInterrupts() #10
  br label %23

23:                                               ; preds = %22, %.lr.ph.i
  %24 = tail call i32 @ReadBufferExtended(ptr noundef %17, i32 noundef 0, i32 noundef %.010.i, i32 noundef 0, ptr noundef %19) #10
  tail call void @brin_page_cleanup(ptr noundef %17, i32 noundef %24) #10
  tail call void @ReleaseBuffer(i32 noundef %24) #10
  %25 = add nuw i32 %.010.i, 1
  %exitcond.not.i = icmp eq i32 %25, %20
  br i1 %exitcond.not.i, label %brin_vacuum_scan.exit, label %.lr.ph.i, !llvm.loop !15

brin_vacuum_scan.exit:                            ; preds = %23, %9
  tail call void @FreeSpaceMapVacuum(ptr noundef %17) #10
  %26 = load ptr, ptr %0, align 8
  %27 = getelementptr inbounds nuw i8, ptr %.015, i64 8
  tail call fastcc void @brinsummarize(ptr noundef %26, ptr noundef %16, i32 noundef -1, i1 noundef zeroext false, ptr noundef nonnull %27, ptr noundef nonnull %27)
  tail call void @table_close(ptr noundef %16, i32 noundef 1) #10
  br label %28

28:                                               ; preds = %2, %brin_vacuum_scan.exit
  %.0 = phi ptr [ %.015, %brin_vacuum_scan.exit ], [ %1, %2 ]
  ret ptr %.0
}